; Function Attrs: mustprogress uwtable
define hidden void @_ZN15simplify_tactic7cleanupEv(ptr noundef nonnull align 8 dereferenceable(32) %0) unnamed_addr #3 align 2 personality ptr @__gxx_personality_v0 {
  %2 = alloca %class.params_ref, align 8
  %3 = getelementptr inbounds nuw i8, ptr %0, i64 12
  %4 = load i8, ptr %3, align 4, !tbaa !11, !range !80, !noundef !81
  %5 = trunc nuw i8 %4 to i1
  br i1 %5, label %17, label %6

6:                                                ; preds = %1
  %7 = getelementptr inbounds nuw i8, ptr %0, i64 16
  %8 = load ptr, ptr %7, align 8, !tbaa !24
  %9 = load ptr, ptr %8, align 8, !tbaa !57
  call void @llvm.lifetime.start.p0(i64 8, ptr nonnull %2) #19
  %10 = getelementptr inbounds nuw i8, ptr %0, i64 24
  call void @_ZN10params_refC1ERKS_(ptr noundef nonnull align 8 dereferenceable(8) %2, ptr noundef nonnull align 8 dereferenceable(8) %10)
  %11 = load ptr, ptr %7, align 8, !tbaa !24
  %12 = getelementptr inbounds nuw i8, ptr %11, i64 8
  call void @_ZN11th_rewriterD1Ev(ptr noundef nonnull align 8 dereferenceable(16) %12) #19
  %13 = load ptr, ptr %7, align 8, !tbaa !24
  store ptr %9, ptr %13, align 8, !tbaa !18
  %14 = getelementptr inbounds nuw i8, ptr %13, i64 8
  invoke void @_ZN11th_rewriterC1ER11ast_managerRK10params_ref(ptr noundef nonnull align 8 dereferenceable(16) %14, ptr noundef nonnull align 8 dereferenceable(976) %9, ptr noundef nonnull align 8 dereferenceable(8) %2)
          to label %15 unwind label %18

15:                                               ; preds = %6
  %16 = getelementptr inbounds nuw i8, ptr %13, i64 24
  store i32 0, ptr %16, align 8, !tbaa !20
  store i8 1, ptr %3, align 4, !tbaa !11
  call void @_ZN10params_refD1Ev(ptr noundef nonnull align 8 dereferenceable(8) %2) #19
  call void @llvm.lifetime.end.p0(i64 8, ptr nonnull %2) #19
  br label %17

17:                                               ; preds = %1, %15
  ret void

18:                                               ; preds = %6
  %19 = landingpad { ptr, i32 }
          cleanup
  call void @_ZN10params_refD1Ev(ptr noundef nonnull align 8 dereferenceable(8) %2) #19
  call void @llvm.lifetime.end.p0(i64 8, ptr nonnull %2) #19
  resume { ptr, i32 } %19
}